; Function Attrs: mustprogress nounwind uwtable
define hidden void @_ZN23ConcurrentGCBreakpoints2atEPKc(ptr noundef %0) local_unnamed_addr #2 align 2 {
  %2 = load ptr, ptr @ConcurrentGCBreakpoints_lock, align 8
  %.not.i.i = icmp eq ptr %2, null
  br i1 %.not.i.i, label %_ZN13MonitorLockerC2EP7MonitorN5Mutex18SafepointCheckFlagE.exit, label %3

3:                                                ; preds = %1
  tail call void @_ZN5Mutex28lock_without_safepoint_checkEv(ptr noundef nonnull align 8 dereferenceable(104) %2) #7
  br label %_ZN13MonitorLockerC2EP7MonitorN5Mutex18SafepointCheckFlagE.exit

_ZN13MonitorLockerC2EP7MonitorN5Mutex18SafepointCheckFlagE.exit: ; preds = %1, %3
  %4 = load ptr, ptr @_ZN23ConcurrentGCBreakpoints7_run_toE, align 8
  %5 = icmp eq ptr %4, null
  br i1 %5, label %8, label %6

6:                                                ; preds = %_ZN13MonitorLockerC2EP7MonitorN5Mutex18SafepointCheckFlagE.exit
  %7 = tail call i32 @strcmp(ptr noundef nonnull dereferenceable(1) %4, ptr noundef nonnull dereferenceable(1) %0) #8
  %.not = icmp eq i32 %7, 0
  br i1 %.not, label %11, label %8

8:                                                ; preds = %6, %_ZN13MonitorLockerC2EP7MonitorN5Mutex18SafepointCheckFlagE.exit
  %9 = load volatile ptr, ptr getelementptr inbounds (i8, ptr @_ZN16LogTagSetMappingILN6LogTag4typeE49ELS1_11ELS1_0ELS1_0ELS1_0ELS1_0EE7_tagsetE, i64 48), align 8
  %.not8 = icmp eq ptr %9, null
  br i1 %.not8, label %22, label %10

10:                                               ; preds = %8
  tail call void (ptr, ...) @_ZN7LogImplILN6LogTag4typeE49ELS1_11ELS1_0ELS1_0ELS1_0ELS1_0EE5writeILN8LogLevel4typeE1EEEvPKcz(ptr noundef nonnull @.str.10, ptr noundef %0)
  br label %22

11:                                               ; preds = %6
  %12 = load volatile ptr, ptr getelementptr inbounds (i8, ptr @_ZN16LogTagSetMappingILN6LogTag4typeE49ELS1_11ELS1_0ELS1_0ELS1_0ELS1_0EE7_tagsetE, i64 48), align 8
  %.not6 = icmp eq ptr %12, null
  br i1 %.not6, label %14, label %13

13:                                               ; preds = %11
  tail call void (ptr, ...) @_ZN7LogImplILN6LogTag4typeE49ELS1_11ELS1_0ELS1_0ELS1_0ELS1_0EE5writeILN8LogLevel4typeE1EEEvPKcz(ptr noundef nonnull @.str.11, ptr noundef %0)
  br label %14

14:                                               ; preds = %11, %13
  store ptr null, ptr @_ZN23ConcurrentGCBreakpoints7_run_toE, align 8
  store i8 1, ptr @_ZN23ConcurrentGCBreakpoints11_is_stoppedE, align 1
  tail call void @_ZN7Monitor10notify_allEv(ptr noundef nonnull align 8 dereferenceable(104) %2) #7
  %15 = load i8, ptr @_ZN23ConcurrentGCBreakpoints11_is_stoppedE, align 1
  %16 = trunc i8 %15 to i1
  br i1 %16, label %_ZN13MonitorLocker4waitEl.exit, label %._crit_edge

_ZN13MonitorLocker4waitEl.exit:                   ; preds = %14, %_ZN13MonitorLocker4waitEl.exit
  %17 = tail call noundef zeroext i1 @_ZN7Monitor28wait_without_safepoint_checkEm(ptr noundef nonnull align 8 dereferenceable(104) %2, i64 noundef 0) #7
  %18 = load i8, ptr @_ZN23ConcurrentGCBreakpoints11_is_stoppedE, align 1
  %19 = trunc i8 %18 to i1
  br i1 %19, label %_ZN13MonitorLocker4waitEl.exit, label %._crit_edge, !llvm.loop !9

._crit_edge:                                      ; preds = %_ZN13MonitorLocker4waitEl.exit, %14
  %20 = load volatile ptr, ptr getelementptr inbounds (i8, ptr @_ZN16LogTagSetMappingILN6LogTag4typeE49ELS1_11ELS1_0ELS1_0ELS1_0ELS1_0EE7_tagsetE, i64 48), align 8
  %.not7 = icmp eq ptr %20, null
  br i1 %.not7, label %22, label %21

21:                                               ; preds = %._crit_edge
  tail call void (ptr, ...) @_ZN7LogImplILN6LogTag4typeE49ELS1_11ELS1_0ELS1_0ELS1_0ELS1_0EE5writeILN8LogLevel4typeE1EEEvPKcz(ptr noundef nonnull @.str.12)
  br label %22

22:                                               ; preds = %21, %._crit_edge, %10, %8
  br i1 %.not.i.i, label %_ZN13MonitorLockerD2Ev.exit, label %23

23:                                               ; preds = %22
  tail call void @_ZN5Mutex6unlockEv(ptr noundef nonnull align 8 dereferenceable(104) %2) #7
  br label %_ZN13MonitorLockerD2Ev.exit

_ZN13MonitorLockerD2Ev.exit:                      ; preds = %22, %23
  ret void
}